; Function Attrs: nounwind sspstrong uwtable
define i64 @ossl_x509_ary2sk0(i64 noundef %0) #0 {
  %2 = icmp eq i64 %0, 0
  %3 = and i64 %0, 7
  %4 = icmp ne i64 %3, 0
  %5 = or i1 %2, %4
  br i1 %5, label %rbimpl_RB_TYPE_P_fastpath.exit.thread.i, label %rbimpl_RB_TYPE_P_fastpath.exit.i, !prof !6

rbimpl_RB_TYPE_P_fastpath.exit.i:                 ; preds = %1
  %6 = inttoptr i64 %0 to ptr
  %7 = load i64, ptr %6, align 8, !tbaa !7
  %8 = and i64 %7, 31
  %9 = icmp eq i64 %8, 7
  br i1 %9, label %Check_Type.exit, label %rbimpl_RB_TYPE_P_fastpath.exit.thread.i, !prof !12

rbimpl_RB_TYPE_P_fastpath.exit.thread.i:          ; preds = %rbimpl_RB_TYPE_P_fastpath.exit.i, %1
  tail call void @rb_unexpected_type(i64 noundef %0, i32 noundef 7) #14
  unreachable

Check_Type.exit:                                  ; preds = %rbimpl_RB_TYPE_P_fastpath.exit.i
  %10 = tail call ptr @OPENSSL_sk_new_null() #15
  %.not = icmp eq ptr %10, null
  br i1 %.not, label %12, label %.preheader

.preheader:                                       ; preds = %Check_Type.exit
  %11 = getelementptr inbounds nuw i8, ptr %6, i64 16
  br label %14

12:                                               ; preds = %Check_Type.exit
  %13 = load i64, ptr @eOSSLError, align 8, !tbaa !13
  tail call void (i64, ptr, ...) @ossl_raise(i64 noundef %13, ptr noundef null) #16
  unreachable

14:                                               ; preds = %.preheader, %29
  %indvars.iv = phi i64 [ 0, %.preheader ], [ %indvars.iv.next, %29 ]
  %15 = load i64, ptr %6, align 8, !tbaa !7
  %16 = and i64 %15, 8192
  %.not.i = icmp eq i64 %16, 0
  br i1 %.not.i, label %20, label %17

17:                                               ; preds = %14
  %18 = lshr i64 %15, 15
  %19 = and i64 %18, 127
  br label %rb_array_len.exit

20:                                               ; preds = %14
  %21 = load i64, ptr %11, align 8, !tbaa !14
  br label %rb_array_len.exit

rb_array_len.exit:                                ; preds = %17, %20
  %.0.i = phi i64 [ %19, %17 ], [ %21, %20 ]
  %22 = icmp sgt i64 %.0.i, %indvars.iv
  br i1 %22, label %23, label %32

23:                                               ; preds = %rb_array_len.exit
  %24 = tail call i64 @rb_ary_entry(i64 noundef %0, i64 noundef %indvars.iv) #17
  %25 = load i64, ptr @cX509Cert, align 8, !tbaa !13
  %26 = tail call i64 @rb_obj_is_kind_of(i64 noundef %24, i64 noundef %25) #15
  %.not14 = icmp eq i64 %26, 0
  br i1 %.not14, label %27, label %29

27:                                               ; preds = %23
  tail call void @OPENSSL_sk_pop_free(ptr noundef nonnull %10, ptr noundef nonnull @X509_free) #15
  %28 = load i64, ptr @eOSSLError, align 8, !tbaa !13
  tail call void (i64, ptr, ...) @ossl_raise(i64 noundef %28, ptr noundef nonnull @.str) #16
  unreachable

29:                                               ; preds = %23
  %30 = tail call ptr @DupX509CertPtr(i64 noundef %24) #15
  %31 = tail call i32 @OPENSSL_sk_push(ptr noundef nonnull %10, ptr noundef %30) #15
  %indvars.iv.next = add nuw nsw i64 %indvars.iv, 1
  br label %14, !llvm.loop !15

32:                                               ; preds = %rb_array_len.exit
  %33 = ptrtoint ptr %10 to i64
  ret i64 %33
}